; Function Attrs: nounwind uwtable
define ptr @l_Lean_Meta_withLocalDecl___at_Lean_Meta_IndPredBelow_mkCtorType_checkCount___spec__9___rarg___boxed(ptr noundef %0, ptr noundef %1, ptr noundef %2, ptr noundef %3, ptr noundef %4, ptr noundef %5, ptr noundef %6, ptr noundef %7, ptr noundef %8, ptr noundef %9, ptr noundef %10, ptr noundef %11) #0 {
  %13 = ptrtoint ptr %1 to i64
  %14 = and i64 %13, 1
  %.not = icmp eq i64 %14, 0
  br i1 %.not, label %15, label %lean_dec.exit16

15:                                               ; preds = %12
  %16 = load i32, ptr %1, align 4, !tbaa !12
  %17 = icmp sgt i32 %16, 1
  br i1 %17, label %18, label %20, !prof !11

18:                                               ; preds = %15
  %19 = add nsw i32 %16, -1
  store i32 %19, ptr %1, align 4, !tbaa !12
  br label %lean_dec.exit16

20:                                               ; preds = %15
  %.not.i = icmp eq i32 %16, 0
  br i1 %.not.i, label %lean_dec.exit16, label %21

21:                                               ; preds = %20
  tail call void @lean_dec_ref_cold(ptr noundef nonnull %1) #6
  br label %lean_dec.exit16

lean_dec.exit16:                                  ; preds = %21, %20, %18, %12
  %22 = ptrtoint ptr %4 to i64
  %23 = and i64 %22, 1
  %.not19 = icmp eq i64 %23, 0
  br i1 %.not19, label %24, label %lean_dec.exit

24:                                               ; preds = %lean_dec.exit16
  %25 = load i32, ptr %4, align 4, !tbaa !12
  %26 = icmp sgt i32 %25, 1
  br i1 %26, label %27, label %29, !prof !11

27:                                               ; preds = %24
  %28 = add nsw i32 %25, -1
  store i32 %28, ptr %4, align 4, !tbaa !12
  br label %lean_dec.exit

29:                                               ; preds = %24
  %.not.i17 = icmp eq i32 %25, 0
  br i1 %.not.i17, label %lean_dec.exit, label %30

30:                                               ; preds = %29
  tail call void @lean_dec_ref_cold(ptr noundef nonnull %4) #6
  br label %lean_dec.exit

lean_dec.exit:                                    ; preds = %30, %29, %27, %lean_dec.exit16
  %31 = lshr i64 %22, 1
  %32 = trunc i64 %31 to i8
  %33 = lshr i64 %13, 1
  %34 = trunc i64 %33 to i8
  %35 = tail call ptr @l_Lean_Meta_withLocalDecl___at_Lean_Meta_IndPredBelow_mkCtorType_checkCount___spec__9___rarg(ptr noundef %0, i8 noundef zeroext %34, ptr noundef %2, ptr noundef %3, i8 noundef zeroext %32, ptr noundef %5, ptr noundef %6, ptr noundef %7, ptr noundef %8, ptr noundef %9, ptr noundef %10, ptr noundef %11)
  ret ptr %35
}